target datalayout = "e-m:e-p270:32:32-p271:32:32-p272:64:64-i64:64-i128:128-f80:128-n8:16:32:64-S128"
target triple = "x86_64-pc-linux-gnu"

%struct.CType = type { i32, i32, i16, i16, %struct.GCRef }
%struct.GCRef = type { i64 }
%struct.CTState = type { ptr, i32, i32, ptr, ptr, ptr, %struct.CCallback, [128 x i16] }
%struct.CCallback = type { [8 x %union.FPRCBArg], [8 x i64], ptr, ptr, ptr, i32, i32, i32 }
%union.FPRCBArg = type { double }

; Function Attrs: alwaysinline nounwind uwtable
define internal i32 @ctype_check(ptr noundef %0, i32 noundef %1) #2 {
  %3 = alloca ptr, align 8
  %4 = alloca i32, align 4
  store ptr %0, ptr %3, align 8, !tbaa !4
  store i32 %1, ptr %4, align 4, !tbaa !11
  %5 = load i32, ptr %4, align 4, !tbaa !11
  ret i32 %5
}

; Function Attrs: alwaysinline nounwind uwtable
define internal ptr @ctype_get(ptr noundef %0, i32 noundef %1) #2 {
  %3 = alloca ptr, align 8
  %4 = alloca i32, align 4
  store ptr %0, ptr %3, align 8, !tbaa !4
  store i32 %1, ptr %4, align 4, !tbaa !11
  %5 = load ptr, ptr %3, align 8, !tbaa !4
  %6 = getelementptr inbounds nuw %struct.CTState, ptr %5, i32 0, i32 0
  %7 = load ptr, ptr %6, align 8, !tbaa !42
  %8 = load ptr, ptr %3, align 8, !tbaa !4
  %9 = load i32, ptr %4, align 4, !tbaa !11
  %10 = call i32 @ctype_check(ptr noundef %8, i32 noundef %9)
  %11 = zext i32 %10 to i64
  %12 = getelementptr inbounds nuw %struct.CType, ptr %7, i64 %11
  ret ptr %12
}

; Function Attrs: alwaysinline nounwind uwtable
define internal ptr @ctype_child(ptr noundef %0, ptr noundef %1) #2 {
  %3 = alloca ptr, align 8
  %4 = alloca ptr, align 8
  store ptr %0, ptr %3, align 8, !tbaa !4
  store ptr %1, ptr %4, align 8, !tbaa !9
  %5 = load ptr, ptr %3, align 8, !tbaa !4
  %6 = load ptr, ptr %4, align 8, !tbaa !9
  %7 = getelementptr inbounds nuw %struct.CType, ptr %6, i32 0, i32 0
  %8 = load i32, ptr %7, align 8, !tbaa !13
  %9 = and i32 %8, 65535
  %10 = call ptr @ctype_get(ptr noundef %5, i32 noundef %9)
  ret ptr %10
}

; Function Attrs: nounwind uwtable
define internal ptr @cconv_childqual(ptr noundef %0, ptr noundef %1, ptr noundef %2) #0 {
  %4 = alloca ptr, align 8
  %5 = alloca ptr, align 8
  %6 = alloca ptr, align 8
  store ptr %0, ptr %4, align 8, !tbaa !4
  store ptr %1, ptr %5, align 8, !tbaa !9
  store ptr %2, ptr %6, align 8, !tbaa !19
  %7 = load ptr, ptr %4, align 8, !tbaa !4
  %8 = load ptr, ptr %5, align 8, !tbaa !9
  %9 = call ptr @ctype_child(ptr noundef %7, ptr noundef %8)
  store ptr %9, ptr %5, align 8, !tbaa !9
  br label %10

10:                                               ; preds = %39, %3
  %11 = load ptr, ptr %5, align 8, !tbaa !9
  %12 = getelementptr inbounds nuw %struct.CType, ptr %11, i32 0, i32 0
  %13 = load i32, ptr %12, align 8, !tbaa !13
  %14 = lshr i32 %13, 28
  %15 = icmp eq i32 %14, 8
  br i1 %15, label %16, label %31

16:                                               ; preds = %10
  %17 = load ptr, ptr %5, align 8, !tbaa !9
  %18 = getelementptr inbounds nuw %struct.CType, ptr %17, i32 0, i32 0
  %19 = load i32, ptr %18, align 8, !tbaa !13
  %20 = lshr i32 %19, 16
  %21 = and i32 %20, 255
  %22 = icmp eq i32 %21, 1
  br i1 %22, label %23, label %30

23:                                               ; preds = %16
  %24 = load ptr, ptr %5, align 8, !tbaa !9
  %25 = getelementptr inbounds nuw %struct.CType, ptr %24, i32 0, i32 1
  %26 = load i32, ptr %25, align 4, !tbaa !18
  %27 = load ptr, ptr %6, align 8, !tbaa !19
  %28 = load i32, ptr %27, align 4, !tbaa !11
  %29 = or i32 %28, %26
  store i32 %29, ptr %27, align 4, !tbaa !11
  br label %30

30:                                               ; preds = %23, %16
  br label %39

31:                                               ; preds = %10
  %32 = load ptr, ptr %5, align 8, !tbaa !9
  %33 = getelementptr inbounds nuw %struct.CType, ptr %32, i32 0, i32 0
  %34 = load i32, ptr %33, align 8, !tbaa !13
  %35 = lshr i32 %34, 28
  %36 = icmp eq i32 %35, 5
  br i1 %36, label %38, label %37

37:                                               ; preds = %31
  br label %43

38:                                               ; preds = %31
  br label %39

39:                                               ; preds = %38, %30
  %40 = load ptr, ptr %4, align 8, !tbaa !4
  %41 = load ptr, ptr %5, align 8, !tbaa !9
  %42 = call ptr @ctype_child(ptr noundef %40, ptr noundef %41)
  store ptr %42, ptr %5, align 8, !tbaa !9
  br label %10

43:                                               ; preds = %37
  %44 = load ptr, ptr %5, align 8, !tbaa !9
  %45 = getelementptr inbounds nuw %struct.CType, ptr %44, i32 0, i32 0
  %46 = load i32, ptr %45, align 8, !tbaa !13
  %47 = and i32 %46, 50331648
  %48 = load ptr, ptr %6, align 8, !tbaa !19
  %49 = load i32, ptr %48, align 4, !tbaa !11
  %50 = or i32 %49, %47
  store i32 %50, ptr %48, align 4, !tbaa !11
  %51 = load ptr, ptr %5, align 8, !tbaa !9
  ret ptr %51
}

; Function Attrs: nounwind uwtable
define hidden i32 @lj_cconv_compatptr(ptr noundef %0, ptr noundef %1, ptr noundef %2, i32 noundef %3) #0 {
  %5 = alloca i32, align 4
  %6 = alloca ptr, align 8
  %7 = alloca ptr, align 8
  %8 = alloca ptr, align 8
  %9 = alloca i32, align 4
  %10 = alloca i32, align 4
  %11 = alloca i32, align 4
  %12 = alloca i32, align 4
  store ptr %0, ptr %6, align 8, !tbaa !4
  store ptr %1, ptr %7, align 8, !tbaa !9
  store ptr %2, ptr %8, align 8, !tbaa !9
  store i32 %3, ptr %9, align 4, !tbaa !11
  %13 = load i32, ptr %9, align 4, !tbaa !11
  %14 = and i32 %13, 1
  %15 = icmp ne i32 %14, 0
  br i1 %15, label %146, label %16

16:                                               ; preds = %4
  %17 = load ptr, ptr %7, align 8, !tbaa !9
  %18 = load ptr, ptr %8, align 8, !tbaa !9
  %19 = icmp eq ptr %17, %18
  br i1 %19, label %146, label %20

20:                                               ; preds = %16
  call void @llvm.lifetime.start.p0(i64 4, ptr %10) #9
  store i32 0, ptr %10, align 4, !tbaa !11
  call void @llvm.lifetime.start.p0(i64 4, ptr %11) #9
  store i32 0, ptr %11, align 4, !tbaa !11
  %21 = load ptr, ptr %6, align 8, !tbaa !4
  %22 = load ptr, ptr %7, align 8, !tbaa !9
  %23 = call ptr @cconv_childqual(ptr noundef %21, ptr noundef %22, ptr noundef %10)
  store ptr %23, ptr %7, align 8, !tbaa !9
  %24 = load ptr, ptr %8, align 8, !tbaa !9
  %25 = getelementptr inbounds nuw %struct.CType, ptr %24, i32 0, i32 0
  %26 = load i32, ptr %25, align 8, !tbaa !13
  %27 = lshr i32 %26, 28
  %28 = icmp eq i32 %27, 1
  br i1 %28, label %33, label %29

29:                                               ; preds = %20
  %30 = load ptr, ptr %6, align 8, !tbaa !4
  %31 = load ptr, ptr %8, align 8, !tbaa !9
  %32 = call ptr @cconv_childqual(ptr noundef %30, ptr noundef %31, ptr noundef %11)
  store ptr %32, ptr %8, align 8, !tbaa !9
  br label %33

33:                                               ; preds = %29, %20
  %34 = load i32, ptr %9, align 4, !tbaa !11
  %35 = and i32 %34, 4
  %36 = icmp ne i32 %35, 0
  br i1 %36, label %37, label %43

37:                                               ; preds = %33
  %38 = load i32, ptr %10, align 4, !tbaa !11
  %39 = load i32, ptr %11, align 4, !tbaa !11
  %40 = icmp ne i32 %38, %39
  br i1 %40, label %41, label %42

41:                                               ; preds = %37
  store i32 0, ptr %5, align 4
  store i32 1, ptr %12, align 4
  br label %143

42:                                               ; preds = %37
  br label %69

43:                                               ; preds = %33
  %44 = load i32, ptr %9, align 4, !tbaa !11
  %45 = and i32 %44, 8
  %46 = icmp ne i32 %45, 0
  br i1 %46, label %68, label %47

47:                                               ; preds = %43
  %48 = load i32, ptr %10, align 4, !tbaa !11
  %49 = load i32, ptr %11, align 4, !tbaa !11
  %50 = and i32 %48, %49
  %51 = load i32, ptr %11, align 4, !tbaa !11
  %52 = icmp ne i32 %50, %51
  br i1 %52, label %53, label %54

53:                                               ; preds = %47
  store i32 0, ptr %5, align 4
  store i32 1, ptr %12, align 4
  br label %143

54:                                               ; preds = %47
  %55 = load ptr, ptr %7, align 8, !tbaa !9
  %56 = getelementptr inbounds nuw %struct.CType, ptr %55, i32 0, i32 0
  %57 = load i32, ptr %56, align 8, !tbaa !13
  %58 = lshr i32 %57, 28
  %59 = icmp eq i32 %58, 4
  br i1 %59, label %66, label %60

60:                                               ; preds = %54
  %61 = load ptr, ptr %8, align 8, !tbaa !9
  %62 = getelementptr inbounds nuw %struct.CType, ptr %61, i32 0, i32 0
  %63 = load i32, ptr %62, align 8, !tbaa !13
  %64 = lshr i32 %63, 28
  %65 = icmp eq i32 %64, 4
  br i1 %65, label %66, label %67

66:                                               ; preds = %60, %54
  store i32 1, ptr %5, align 4
  store i32 1, ptr %12, align 4
  br label %143

67:                                               ; preds = %60
  br label %68

68:                                               ; preds = %67, %43
  br label %69

69:                                               ; preds = %68, %42
  %70 = load ptr, ptr %7, align 8, !tbaa !9
  %71 = getelementptr inbounds nuw %struct.CType, ptr %70, i32 0, i32 0
  %72 = load i32, ptr %71, align 8, !tbaa !13
  %73 = lshr i32 %72, 28
  %74 = load ptr, ptr %8, align 8, !tbaa !9
  %75 = getelementptr inbounds nuw %struct.CType, ptr %74, i32 0, i32 0
  %76 = load i32, ptr %75, align 8, !tbaa !13
  %77 = lshr i32 %76, 28
  %78 = icmp ne i32 %73, %77
  br i1 %78, label %87, label %79

79:                                               ; preds = %69
  %80 = load ptr, ptr %7, align 8, !tbaa !9
  %81 = getelementptr inbounds nuw %struct.CType, ptr %80, i32 0, i32 1
  %82 = load i32, ptr %81, align 4, !tbaa !18
  %83 = load ptr, ptr %8, align 8, !tbaa !9
  %84 = getelementptr inbounds nuw %struct.CType, ptr %83, i32 0, i32 1
  %85 = load i32, ptr %84, align 4, !tbaa !18
  %86 = icmp ne i32 %82, %85
  br i1 %86, label %87, label %88

87:                                               ; preds = %79, %69
  store i32 0, ptr %5, align 4
  store i32 1, ptr %12, align 4
  br label %143

88:                                               ; preds = %79
  %89 = load ptr, ptr %7, align 8, !tbaa !9
  %90 = getelementptr inbounds nuw %struct.CType, ptr %89, i32 0, i32 0
  %91 = load i32, ptr %90, align 8, !tbaa !13
  %92 = lshr i32 %91, 28
  %93 = icmp eq i32 %92, 0
  br i1 %93, label %94, label %106

94:                                               ; preds = %88
  %95 = load ptr, ptr %7, align 8, !tbaa !9
  %96 = getelementptr inbounds nuw %struct.CType, ptr %95, i32 0, i32 0
  %97 = load i32, ptr %96, align 8, !tbaa !13
  %98 = load ptr, ptr %8, align 8, !tbaa !9
  %99 = getelementptr inbounds nuw %struct.CType, ptr %98, i32 0, i32 0
  %100 = load i32, ptr %99, align 8, !tbaa !13
  %101 = xor i32 %97, %100
  %102 = and i32 %101, 201326592
  %103 = icmp ne i32 %102, 0
  br i1 %103, label %104, label %105

104:                                              ; preds = %94
  store i32 0, ptr %5, align 4
  store i32 1, ptr %12, align 4
  br label %143

105:                                              ; preds = %94
  br label %142

106:                                              ; preds = %88
  %107 = load ptr, ptr %7, align 8, !tbaa !9
  %108 = getelementptr inbounds nuw %struct.CType, ptr %107, i32 0, i32 0
  %109 = load i32, ptr %108, align 8, !tbaa !13
  %110 = lshr i32 %109, 28
  %111 = lshr i32 %110, 1
  %112 = icmp eq i32 %111, 1
  br i1 %112, label %113, label %120

113:                                              ; preds = %106
  %114 = load ptr, ptr %6, align 8, !tbaa !4
  %115 = load ptr, ptr %7, align 8, !tbaa !9
  %116 = load ptr, ptr %8, align 8, !tbaa !9
  %117 = load i32, ptr %9, align 4, !tbaa !11
  %118 = or i32 %117, 4
  %119 = call i32 @lj_cconv_compatptr(ptr noundef %114, ptr noundef %115, ptr noundef %116, i32 noundef %118)
  store i32 %119, ptr %5, align 4
  store i32 1, ptr %12, align 4
  br label %143

120:                                              ; preds = %106
  %121 = load ptr, ptr %7, align 8, !tbaa !9
  %122 = getelementptr inbounds nuw %struct.CType, ptr %121, i32 0, i32 0
  %123 = load i32, ptr %122, align 8, !tbaa !13
  %124 = lshr i32 %123, 28
  %125 = icmp eq i32 %124, 1
  br i1 %125, label %126, label %132

126:                                              ; preds = %120
  %127 = load ptr, ptr %7, align 8, !tbaa !9
  %128 = load ptr, ptr %8, align 8, !tbaa !9
  %129 = icmp ne ptr %127, %128
  br i1 %129, label %130, label %131

130:                                              ; preds = %126
  store i32 0, ptr %5, align 4
  store i32 1, ptr %12, align 4
  br label %143

131:                                              ; preds = %126
  br label %140

132:                                              ; preds = %120
  %133 = load ptr, ptr %7, align 8, !tbaa !9
  %134 = getelementptr inbounds nuw %struct.CType, ptr %133, i32 0, i32 0
  %135 = load i32, ptr %134, align 8, !tbaa !13
  %136 = lshr i32 %135, 28
  %137 = icmp eq i32 %136, 6
  br i1 %137, label %138, label %139

138:                                              ; preds = %132
  br label %139

139:                                              ; preds = %138, %132
  br label %140

140:                                              ; preds = %139, %131
  br label %141

141:                                              ; preds = %140
  br label %142

142:                                              ; preds = %141, %105
  store i32 0, ptr %12, align 4
  br label %143

143:                                              ; preds = %142, %130, %113, %104, %87, %66, %53, %41
  call void @llvm.lifetime.end.p0(i64 4, ptr %11) #9
  call void @llvm.lifetime.end.p0(i64 4, ptr %10) #9
  %144 = load i32, ptr %12, align 4
  switch i32 %144, label %149 [
    i32 0, label %145
    i32 1, label %147
  ]

145:                                              ; preds = %143
  br label %146

146:                                              ; preds = %145, %16, %4
  store i32 1, ptr %5, align 4
  br label %147

147:                                              ; preds = %146, %143
  %148 = load i32, ptr %5, align 4
  ret i32 %148

149:                                              ; preds = %143
  unreachable
}