; Function Attrs: nofree nosync nounwind memory(read, inaccessiblemem: none) uwtable
define hidden range(i32 0, 2) i32 @lj_cconv_compatptr(ptr noundef readonly captures(none) %0, ptr noundef readonly captures(address) %1, ptr noundef readonly captures(address) %2, i32 noundef %3) local_unnamed_addr #0 {
  %5 = and i32 %3, 1
  %.not = icmp ne i32 %5, 0
  %6 = icmp eq ptr %1, %2
  %or.cond = or i1 %6, %.not
  br i1 %or.cond, label %63, label %7

7:                                                ; preds = %4
  %.val = load ptr, ptr %0, align 8, !tbaa !4
  %.val46 = load i32, ptr %1, align 8, !tbaa !17
  br label %.outer

.outer:                                           ; preds = %14, %7
  %.064.ph = phi i32 [ %17, %14 ], [ 0, %7 ]
  %.pn.in.in.i.ph = phi i32 [ %9, %14 ], [ %.val46, %7 ]
  br label %8

8:                                                ; preds = %.backedge, %.outer
  %.pn.in.in.i = phi i32 [ %.pn.in.in.i.ph, %.outer ], [ %9, %.backedge ]
  %.pn.in.i = and i32 %.pn.in.in.i, 65535
  %.pn.i = zext nneg i32 %.pn.in.i to i64
  %.0.i = getelementptr inbounds nuw %struct.CType, ptr %.val, i64 %.pn.i
  %9 = load i32, ptr %.0.i, align 8, !tbaa !17
  %10 = lshr i32 %9, 28
  switch i32 %10, label %cconv_childqual.exit [
    i32 8, label %11
    i32 5, label %.backedge
  ]

11:                                               ; preds = %8
  %12 = and i32 %9, 16711680
  %13 = icmp eq i32 %12, 65536
  br i1 %13, label %14, label %.backedge

.backedge:                                        ; preds = %11, %8
  br label %8

14:                                               ; preds = %11
  %15 = getelementptr inbounds nuw i8, ptr %.0.i, i64 4
  %16 = load i32, ptr %15, align 4, !tbaa !22
  %17 = or i32 %16, %.064.ph
  br label %.outer

cconv_childqual.exit:                             ; preds = %8
  %18 = and i32 %9, 50331648
  %19 = or i32 %18, %.064.ph
  %20 = load i32, ptr %2, align 8, !tbaa !17
  %.mask = and i32 %20, -268435456
  %21 = icmp eq i32 %.mask, 268435456
  br i1 %21, label %33, label %.preheader.outer

.preheader.outer:                                 ; preds = %cconv_childqual.exit, %27
  %.163.ph = phi i32 [ %30, %27 ], [ 0, %cconv_childqual.exit ]
  %.pn.in.in.i49.ph = phi i32 [ %22, %27 ], [ %20, %cconv_childqual.exit ]
  br label %.preheader

.preheader:                                       ; preds = %.preheader.backedge, %.preheader.outer
  %.pn.in.in.i49 = phi i32 [ %.pn.in.in.i49.ph, %.preheader.outer ], [ %22, %.preheader.backedge ]
  %.pn.in.i50 = and i32 %.pn.in.in.i49, 65535
  %.pn.i51 = zext nneg i32 %.pn.in.i50 to i64
  %.0.i52 = getelementptr inbounds nuw %struct.CType, ptr %.val, i64 %.pn.i51
  %22 = load i32, ptr %.0.i52, align 8, !tbaa !17
  %23 = lshr i32 %22, 28
  switch i32 %23, label %cconv_childqual.exit54 [
    i32 8, label %24
    i32 5, label %.preheader.backedge
  ]

24:                                               ; preds = %.preheader
  %25 = and i32 %22, 16711680
  %26 = icmp eq i32 %25, 65536
  br i1 %26, label %27, label %.preheader.backedge

.preheader.backedge:                              ; preds = %24, %.preheader
  br label %.preheader

27:                                               ; preds = %24
  %28 = getelementptr inbounds nuw i8, ptr %.0.i52, i64 4
  %29 = load i32, ptr %28, align 4, !tbaa !22
  %30 = or i32 %29, %.163.ph
  br label %.preheader.outer

cconv_childqual.exit54:                           ; preds = %.preheader
  %31 = and i32 %22, 50331648
  %32 = or i32 %31, %.163.ph
  br label %33

33:                                               ; preds = %cconv_childqual.exit54, %cconv_childqual.exit
  %34 = phi i32 [ %20, %cconv_childqual.exit ], [ %22, %cconv_childqual.exit54 ]
  %.062 = phi i32 [ 0, %cconv_childqual.exit ], [ %32, %cconv_childqual.exit54 ]
  %.030 = phi ptr [ %2, %cconv_childqual.exit ], [ %.0.i52, %cconv_childqual.exit54 ]
  %35 = and i32 %3, 4
  %.not34 = icmp eq i32 %35, 0
  br i1 %.not34, label %38, label %36

36:                                               ; preds = %33
  %.not39 = icmp eq i32 %19, %.062
  %37 = lshr i32 %34, 28
  %.not40 = icmp eq i32 %10, %37
  %or.cond76 = and i1 %.not39, %.not40
  br i1 %or.cond76, label %46, label %.thread

38:                                               ; preds = %33
  %39 = and i32 %3, 8
  %.not35 = icmp eq i32 %39, 0
  br i1 %.not35, label %40, label %45

40:                                               ; preds = %38
  %41 = and i32 %.062, %19
  %.not36 = icmp eq i32 %41, %.062
  br i1 %.not36, label %42, label %.thread

42:                                               ; preds = %40
  %.mask37 = and i32 %9, -268435456
  %43 = icmp eq i32 %.mask37, 1073741824
  %.mask38 = and i32 %34, -268435456
  %44 = icmp eq i32 %.mask38, 1073741824
  %or.cond75 = or i1 %43, %44
  br i1 %or.cond75, label %.thread, label %45

45:                                               ; preds = %42, %38
  %.old = lshr i32 %34, 28
  %.not40.old = icmp eq i32 %10, %.old
  br i1 %.not40.old, label %46, label %.thread

46:                                               ; preds = %36, %45
  %47 = getelementptr inbounds nuw i8, ptr %.0.i, i64 4
  %48 = load i32, ptr %47, align 4, !tbaa !22
  %49 = getelementptr inbounds nuw i8, ptr %.030, i64 4
  %50 = load i32, ptr %49, align 4, !tbaa !22
  %.not41 = icmp eq i32 %48, %50
  br i1 %.not41, label %51, label %.thread

51:                                               ; preds = %46
  %52 = icmp ult i32 %9, 268435456
  br i1 %52, label %53, label %56

53:                                               ; preds = %51
  %54 = xor i32 %34, %9
  %55 = and i32 %54, 201326592
  %.not44 = icmp eq i32 %55, 0
  br i1 %.not44, label %63, label %.thread

56:                                               ; preds = %51
  %.mask42 = and i32 %9, -536870912
  %57 = icmp eq i32 %.mask42, 536870912
  br i1 %57, label %58, label %61

58:                                               ; preds = %56
  %59 = or i32 %3, 4
  %60 = tail call i32 @lj_cconv_compatptr(ptr noundef nonnull %0, ptr noundef nonnull %.0.i, ptr noundef nonnull %.030, i32 noundef %59)
  br label %.thread

61:                                               ; preds = %56
  %62 = icmp ne i32 %10, 1
  %.not43 = icmp eq ptr %.0.i, %.030
  %or.cond45 = or i1 %62, %.not43
  br i1 %or.cond45, label %63, label %.thread

.thread:                                          ; preds = %58, %36, %40, %42, %46, %45, %53, %61
  %.029.ph = phi i32 [ 0, %61 ], [ 0, %53 ], [ 0, %45 ], [ 0, %46 ], [ 1, %42 ], [ 0, %40 ], [ 0, %36 ], [ %60, %58 ]
  br label %63

63:                                               ; preds = %4, %53, %61, %.thread
  %.1 = phi i32 [ %.029.ph, %.thread ], [ 1, %61 ], [ 1, %53 ], [ 1, %4 ]
  ret i32 %.1
}